target datalayout = "e-m:e-p270:32:32-p271:32:32-p272:64:64-i64:64-i128:128-f80:128-n8:16:32:64-S128"
target triple = "x86_64-pc-linux-gnu"

%"class.llvm::Type" = type { ptr, i32, i32, ptr }

; Function Attrs: mustprogress nounwind uwtable
define linkonce_odr hidden noundef i32 @_ZNK4llvm4Type9getTypeIDEv(ptr noundef nonnull align 8 dereferenceable(24) %0) #1 comdat align 2 {
  %2 = alloca ptr, align 8
  store ptr %0, ptr %2, align 8
  %3 = load ptr, ptr %2, align 8
  %4 = getelementptr inbounds nuw %"class.llvm::Type", ptr %3, i32 0, i32 1
  %5 = load i32, ptr %4, align 8
  %6 = and i32 %5, 255
  ret i32 %6
}

; Function Attrs: mustprogress nounwind uwtable
define linkonce_odr hidden noundef zeroext i1 @_ZNK4llvm4Type9isFloatTyEv(ptr noundef nonnull align 8 dereferenceable(24) %0) #1 comdat align 2 {
  %2 = alloca ptr, align 8
  store ptr %0, ptr %2, align 8
  %3 = load ptr, ptr %2, align 8
  %4 = call noundef i32 @_ZNK4llvm4Type9getTypeIDEv(ptr noundef nonnull align 8 dereferenceable(24) %3)
  %5 = icmp eq i32 %4, 2
  ret i1 %5
}

; Function Attrs: mustprogress nounwind uwtable
define linkonce_odr hidden noundef zeroext i1 @_ZNK4llvm4Type10isDoubleTyEv(ptr noundef nonnull align 8 dereferenceable(24) %0) #1 comdat align 2 {
  %2 = alloca ptr, align 8
  store ptr %0, ptr %2, align 8
  %3 = load ptr, ptr %2, align 8
  %4 = call noundef i32 @_ZNK4llvm4Type9getTypeIDEv(ptr noundef nonnull align 8 dereferenceable(24) %3)
  %5 = icmp eq i32 %4, 3
  ret i1 %5
}

; Function Attrs: mustprogress nounwind uwtable
define dso_local noundef zeroext i1 @_ZNK4llvm21TargetLibraryInfoImpl10getLibFuncEjPNS_4TypeERNS_7LibFuncE(ptr noundef nonnull align 8 dereferenceable(208) %0, i32 noundef %1, ptr noundef %2, ptr noundef nonnull align 4 dereferenceable(4) %3) #1 align 2 {
  %5 = alloca i1, align 1
  %6 = alloca ptr, align 8
  %7 = alloca i32, align 4
  %8 = alloca ptr, align 8
  %9 = alloca ptr, align 8
  store ptr %0, ptr %6, align 8
  store i32 %1, ptr %7, align 4
  store ptr %2, ptr %8, align 8
  store ptr %3, ptr %9, align 8
  %10 = load i32, ptr %7, align 4
  %11 = icmp ne i32 %10, 24
  br i1 %11, label %18, label %12

12:                                               ; preds = %4
  %13 = load ptr, ptr %8, align 8
  %14 = call noundef zeroext i1 @_ZNK4llvm4Type10isDoubleTyEv(ptr noundef nonnull align 8 dereferenceable(24) %13)
  br i1 %14, label %19, label %15

15:                                               ; preds = %12
  %16 = load ptr, ptr %8, align 8
  %17 = call noundef zeroext i1 @_ZNK4llvm4Type9isFloatTyEv(ptr noundef nonnull align 8 dereferenceable(24) %16)
  br i1 %17, label %19, label %18

18:                                               ; preds = %15, %4
  store i1 false, ptr %5, align 1
  br label %24

19:                                               ; preds = %15, %12
  %20 = load ptr, ptr %8, align 8
  %21 = call noundef zeroext i1 @_ZNK4llvm4Type10isDoubleTyEv(ptr noundef nonnull align 8 dereferenceable(24) %20)
  %22 = select i1 %21, i32 273, i32 274
  %23 = load ptr, ptr %9, align 8
  store i32 %22, ptr %23, align 4
  store i1 true, ptr %5, align 1
  br label %24

24:                                               ; preds = %19, %18
  %25 = load i1, ptr %5, align 1
  ret i1 %25
}