; Function Attrs: mustprogress nofree norecurse nosync nounwind willreturn memory(argmem: readwrite) uwtable
define dso_local noundef zeroext i1 @_ZNK4llvm21TargetLibraryInfoImpl10getLibFuncEjPNS_4TypeERNS_7LibFuncE(ptr nocapture noundef nonnull readnone align 8 dereferenceable(208) %0, i32 noundef %1, ptr nocapture noundef readonly %2, ptr nocapture noundef nonnull writeonly align 4 dereferenceable(4) %3) local_unnamed_addr #6 align 2 {
  %.not = icmp eq i32 %1, 24
  br i1 %.not, label %5, label %13

5:                                                ; preds = %4
  %6 = getelementptr inbounds nuw i8, ptr %2, i64 8
  %7 = load i32, ptr %6, align 8
  %8 = and i32 %7, 254
  %switch = icmp eq i32 %8, 2
  br i1 %switch, label %9, label %13

9:                                                ; preds = %5
  %10 = and i32 %7, 3
  %11 = icmp eq i32 %10, 3
  %12 = select i1 %11, i32 273, i32 274
  store i32 %12, ptr %3, align 4
  br label %13

13:                                               ; preds = %5, %4, %9
  %.0 = phi i1 [ true, %9 ], [ false, %4 ], [ false, %5 ]
  ret i1 %.0
}